target datalayout = "e-m:e-p270:32:32-p271:32:32-p272:64:64-i64:64-i128:128-f80:128-n8:16:32:64-S128"
target triple = "x86_64-pc-linux-gnu"

%struct.AVFilterContext = type { ptr, ptr, ptr, ptr, ptr, i32, ptr, ptr, i32, ptr, ptr, i32, i32, ptr, ptr, ptr, ptr, i32, ptr, i32, i32 }
%struct.AMergeContext = type { ptr, i32, [64 x i32], i32, ptr }
%struct.AVChannelLayout = type { i32, i32, %union.anon.1, ptr }
%union.anon.1 = type { i64 }
%struct.AVFilterLink = type { ptr, ptr, ptr, ptr, i32, i32, i32, i32, %struct.AVRational, i32, i32, i32, %struct.AVChannelLayout, %struct.AVRational, ptr, i32, %struct.AVFilterFormatsConfig, %struct.AVFilterFormatsConfig }
%struct.AVRational = type { i32, i32 }
%struct.AVFilterFormatsConfig = type { ptr, ptr, ptr, ptr, ptr }
%struct.AVBPrint = type { ptr, i32, i32, i32, [1 x i8], [1000 x i8] }

@.str.3 = private unnamed_addr constant [8 x i8] c"%sin%d:\00", align 1
@.str.4 = private unnamed_addr constant [4 x i8] c" + \00", align 1
@.str.5 = private unnamed_addr constant [1 x i8] zeroinitializer, align 1
@.str.6 = private unnamed_addr constant [9 x i8] c" -> out:\00", align 1
@.str.7 = private unnamed_addr constant [4 x i8] c"%s\0A\00", align 1

; Function Attrs: nounwind uwtable
define internal i32 @config_output(ptr noundef %0) #1 {
  %2 = alloca ptr, align 8
  %3 = alloca ptr, align 8
  %4 = alloca ptr, align 8
  %5 = alloca %struct.AVBPrint, align 8
  %6 = alloca i32, align 4
  store ptr %0, ptr %2, align 8, !tbaa !38
  call void @llvm.lifetime.start.p0(i64 8, ptr %3) #8
  %7 = load ptr, ptr %2, align 8, !tbaa !38
  %8 = getelementptr inbounds nuw %struct.AVFilterLink, ptr %7, i32 0, i32 0
  %9 = load ptr, ptr %8, align 8, !tbaa !74
  store ptr %9, ptr %3, align 8, !tbaa !4
  call void @llvm.lifetime.start.p0(i64 8, ptr %4) #8
  %10 = load ptr, ptr %3, align 8, !tbaa !4
  %11 = getelementptr inbounds nuw %struct.AVFilterContext, ptr %10, i32 0, i32 9
  %12 = load ptr, ptr %11, align 8, !tbaa !9
  store ptr %12, ptr %4, align 8, !tbaa !22
  call void @llvm.lifetime.start.p0(i64 1024, ptr %5) #8
  call void @llvm.lifetime.start.p0(i64 4, ptr %6) #8
  %13 = load ptr, ptr %2, align 8, !tbaa !38
  %14 = getelementptr inbounds nuw %struct.AVFilterLink, ptr %13, i32 0, i32 5
  %15 = load i32, ptr %14, align 4, !tbaa !75
  %16 = call i32 @av_get_bytes_per_sample(i32 noundef %15)
  %17 = load ptr, ptr %4, align 8, !tbaa !22
  %18 = getelementptr inbounds nuw %struct.AMergeContext, ptr %17, i32 0, i32 3
  store i32 %16, ptr %18, align 4, !tbaa !76
  %19 = load ptr, ptr %2, align 8, !tbaa !38
  %20 = getelementptr inbounds nuw %struct.AVFilterLink, ptr %19, i32 0, i32 13
  %21 = load ptr, ptr %3, align 8, !tbaa !4
  %22 = getelementptr inbounds nuw %struct.AVFilterContext, ptr %21, i32 0, i32 4
  %23 = load ptr, ptr %22, align 8, !tbaa !37
  %24 = getelementptr inbounds ptr, ptr %23, i64 0
  %25 = load ptr, ptr %24, align 8, !tbaa !38
  %26 = getelementptr inbounds nuw %struct.AVFilterLink, ptr %25, i32 0, i32 13
  call void @llvm.memcpy.p0.p0.i64(ptr align 8 %20, ptr align 8 %26, i64 8, i1 false), !tbaa.struct !77
  call void @av_bprint_init(ptr noundef %5, i32 noundef 0, i32 noundef 1)
  store i32 0, ptr %6, align 4, !tbaa !28
  br label %27

27:                                               ; preds = %47, %1
  %28 = load i32, ptr %6, align 4, !tbaa !28
  %29 = load ptr, ptr %4, align 8, !tbaa !22
  %30 = getelementptr inbounds nuw %struct.AMergeContext, ptr %29, i32 0, i32 1
  %31 = load i32, ptr %30, align 8, !tbaa !24
  %32 = icmp slt i32 %28, %31
  br i1 %32, label %33, label %50

33:                                               ; preds = %27
  %34 = load i32, ptr %6, align 4, !tbaa !28
  %35 = icmp ne i32 %34, 0
  %36 = select i1 %35, ptr @.str.4, ptr @.str.5
  %37 = load i32, ptr %6, align 4, !tbaa !28
  call void (ptr, ptr, ...) @av_bprintf(ptr noundef %5, ptr noundef @.str.3, ptr noundef %36, i32 noundef %37)
  %38 = load ptr, ptr %3, align 8, !tbaa !4
  %39 = getelementptr inbounds nuw %struct.AVFilterContext, ptr %38, i32 0, i32 4
  %40 = load ptr, ptr %39, align 8, !tbaa !37
  %41 = load i32, ptr %6, align 4, !tbaa !28
  %42 = sext i32 %41 to i64
  %43 = getelementptr inbounds ptr, ptr %40, i64 %42
  %44 = load ptr, ptr %43, align 8, !tbaa !38
  %45 = getelementptr inbounds nuw %struct.AVFilterLink, ptr %44, i32 0, i32 12
  %46 = call i32 @av_channel_layout_describe_bprint(ptr noundef %45, ptr noundef %5)
  br label %47

47:                                               ; preds = %33
  %48 = load i32, ptr %6, align 4, !tbaa !28
  %49 = add nsw i32 %48, 1
  store i32 %49, ptr %6, align 4, !tbaa !28
  br label %27, !llvm.loop !78

50:                                               ; preds = %27
  call void (ptr, ptr, ...) @av_bprintf(ptr noundef %5, ptr noundef @.str.6)
  %51 = load ptr, ptr %2, align 8, !tbaa !38
  %52 = getelementptr inbounds nuw %struct.AVFilterLink, ptr %51, i32 0, i32 12
  %53 = call i32 @av_channel_layout_describe_bprint(ptr noundef %52, ptr noundef %5)
  %54 = load ptr, ptr %3, align 8, !tbaa !4
  %55 = getelementptr inbounds nuw %struct.AVBPrint, ptr %5, i32 0, i32 0
  %56 = load ptr, ptr %55, align 8, !tbaa !79
  call void (ptr, i32, ptr, ...) @av_log(ptr noundef %54, i32 noundef 40, ptr noundef @.str.7, ptr noundef %56)
  call void @llvm.lifetime.end.p0(i64 4, ptr %6) #8
  call void @llvm.lifetime.end.p0(i64 1024, ptr %5) #8
  call void @llvm.lifetime.end.p0(i64 8, ptr %4) #8
  call void @llvm.lifetime.end.p0(i64 8, ptr %3) #8
  ret i32 0
}