; Function Attrs: nounwind uwtable
define internal noundef i32 @config_output(ptr noundef initializes((96, 104)) %0) #1 {
  %2 = alloca %struct.AVBPrint, align 8
  %3 = load ptr, ptr %0, align 8, !tbaa !89
  %4 = getelementptr inbounds nuw i8, ptr %3, i64 72
  %5 = load ptr, ptr %4, align 8, !tbaa !4
  call void @llvm.lifetime.start.p0(i64 1024, ptr nonnull %2) #7
  %6 = getelementptr inbounds nuw i8, ptr %0, i64 36
  %7 = load i32, ptr %6, align 4, !tbaa !90
  %8 = tail call i32 @av_get_bytes_per_sample(i32 noundef %7) #7
  %9 = getelementptr inbounds nuw i8, ptr %5, i64 268
  store i32 %8, ptr %9, align 4, !tbaa !82
  %10 = getelementptr inbounds nuw i8, ptr %0, i64 96
  %11 = getelementptr inbounds nuw i8, ptr %3, i64 32
  %12 = load ptr, ptr %11, align 8, !tbaa !29
  %13 = load ptr, ptr %12, align 8, !tbaa !30
  %14 = getelementptr inbounds nuw i8, ptr %13, i64 96
  %15 = load i64, ptr %14, align 8
  store i64 %15, ptr %10, align 8
  call void @av_bprint_init(ptr noundef nonnull %2, i32 noundef 0, i32 noundef 1) #7
  %16 = getelementptr inbounds nuw i8, ptr %5, i64 8
  %17 = load i32, ptr %16, align 8, !tbaa !20
  %18 = icmp sgt i32 %17, 0
  br i1 %18, label %.lr.ph, label %._crit_edge

.lr.ph:                                           ; preds = %1, %.lr.ph
  %indvars.iv = phi i64 [ %indvars.iv.next, %.lr.ph ], [ 0, %1 ]
  %.not = icmp eq i64 %indvars.iv, 0
  %19 = select i1 %.not, ptr @.str.5, ptr @.str.4
  %20 = trunc nuw nsw i64 %indvars.iv to i32
  call void (ptr, ptr, ...) @av_bprintf(ptr noundef nonnull %2, ptr noundef nonnull @.str.3, ptr noundef nonnull %19, i32 noundef %20) #7
  %21 = load ptr, ptr %11, align 8, !tbaa !29
  %22 = getelementptr inbounds nuw ptr, ptr %21, i64 %indvars.iv
  %23 = load ptr, ptr %22, align 8, !tbaa !30
  %24 = getelementptr inbounds nuw i8, ptr %23, i64 72
  %25 = call i32 @av_channel_layout_describe_bprint(ptr noundef nonnull %24, ptr noundef nonnull %2) #7
  %indvars.iv.next = add nuw nsw i64 %indvars.iv, 1
  %26 = load i32, ptr %16, align 8, !tbaa !20
  %27 = sext i32 %26 to i64
  %28 = icmp slt i64 %indvars.iv.next, %27
  br i1 %28, label %.lr.ph, label %._crit_edge, !llvm.loop !91

._crit_edge:                                      ; preds = %.lr.ph, %1
  call void (ptr, ptr, ...) @av_bprintf(ptr noundef nonnull %2, ptr noundef nonnull @.str.6) #7
  %29 = getelementptr inbounds nuw i8, ptr %0, i64 72
  %30 = call i32 @av_channel_layout_describe_bprint(ptr noundef nonnull %29, ptr noundef nonnull %2) #7
  %31 = load ptr, ptr %2, align 8, !tbaa !92
  call void (ptr, i32, ptr, ...) @av_log(ptr noundef nonnull %3, i32 noundef 40, ptr noundef nonnull @.str.7, ptr noundef %31) #7
  call void @llvm.lifetime.end.p0(i64 1024, ptr nonnull %2) #7
  ret i32 0
}